target datalayout = "e-m:e-p270:32:32-p271:32:32-p272:64:64-i64:64-i128:128-f80:128-n8:16:32:64-S128"
target triple = "x86_64-pc-linux-gnu"

; Function Attrs: mustprogress uwtable
define dso_local noundef zeroext i1 @_ZN4enki13TaskScheduler10TryRunTaskEjRj(ptr noundef nonnull align 8 dereferenceable(220) %0, i32 noundef %1, ptr noundef nonnull align 4 dereferenceable(4) %2) #0 align 2 {
  %4 = alloca i1, align 1
  %5 = alloca ptr, align 8
  %6 = alloca i32, align 4
  %7 = alloca ptr, align 8
  %8 = alloca i32, align 4
  %9 = alloca i32, align 4
  store ptr %0, ptr %5, align 8, !tbaa !4
  store i32 %1, ptr %6, align 4, !tbaa !11
  store ptr %2, ptr %7, align 8, !tbaa !82
  %10 = load ptr, ptr %5, align 8
  call void @llvm.lifetime.start.p0(i64 4, ptr %8) #14
  store i32 0, ptr %8, align 4, !tbaa !11
  br label %11

11:                                               ; preds = %22, %3
  %12 = load i32, ptr %8, align 4, !tbaa !11
  %13 = icmp slt i32 %12, 3
  br i1 %13, label %15, label %14

14:                                               ; preds = %11
  store i32 2, ptr %9, align 4
  br label %25

15:                                               ; preds = %11
  %16 = load i32, ptr %6, align 4, !tbaa !11
  %17 = load i32, ptr %8, align 4, !tbaa !11
  %18 = load ptr, ptr %7, align 8, !tbaa !82
  %19 = call noundef zeroext i1 @_ZN4enki13TaskScheduler10TryRunTaskEjjRj(ptr noundef nonnull align 8 dereferenceable(220) %10, i32 noundef %16, i32 noundef %17, ptr noundef nonnull align 4 dereferenceable(4) %18)
  br i1 %19, label %20, label %21

20:                                               ; preds = %15
  store i1 true, ptr %4, align 1
  store i32 1, ptr %9, align 4
  br label %25

21:                                               ; preds = %15
  br label %22

22:                                               ; preds = %21
  %23 = load i32, ptr %8, align 4, !tbaa !11
  %24 = add nsw i32 %23, 1
  store i32 %24, ptr %8, align 4, !tbaa !11
  br label %11, !llvm.loop !84

25:                                               ; preds = %20, %14
  call void @llvm.lifetime.end.p0(i64 4, ptr %8) #14
  %26 = load i32, ptr %9, align 4
  switch i32 %26, label %30 [
    i32 2, label %27
    i32 1, label %28
  ]

27:                                               ; preds = %25
  store i1 false, ptr %4, align 1
  br label %28

28:                                               ; preds = %27, %25
  %29 = load i1, ptr %4, align 1
  ret i1 %29

30:                                               ; preds = %25
  unreachable
}