; Function Attrs: mustprogress uwtable
define dso_local noundef zeroext i1 @_ZN4enki13TaskScheduler10TryRunTaskEjRj(ptr noundef nonnull align 8 dereferenceable(220) %0, i32 noundef %1, ptr noundef nonnull align 4 captures(none) dereferenceable(4) %2) local_unnamed_addr #0 align 2 {
  br label %4

4:                                                ; preds = %4, %3
  %.079 = phi i32 [ 0, %3 ], [ %6, %4 ]
  %5 = tail call noundef zeroext i1 @_ZN4enki13TaskScheduler10TryRunTaskEjjRj(ptr noundef nonnull align 8 dereferenceable(220) %0, i32 noundef %1, i32 noundef %.079, ptr noundef nonnull align 4 dereferenceable(4) %2)
  %6 = add nuw nsw i32 %.079, 1
  %exitcond.not = icmp eq i32 %6, 3
  %or.cond = select i1 %5, i1 true, i1 %exitcond.not
  br i1 %or.cond, label %7, label %4, !llvm.loop !67

7:                                                ; preds = %4
  ret i1 %5
}